; ModuleID = 'source-C-CXX/20/1345.c'
source_filename = "source-C-CXX/20/1345.c"
target datalayout = "e-m:e-p270:32:32-p271:32:32-p272:64:64-i64:64-f80:128-n8:16:32:64-S128"
target triple = "x86_64-pc-linux-gnu"

@.str = private unnamed_addr constant [3 x i8] c"%d\00", align 1
@.str.1 = private unnamed_addr constant [6 x i8] c"%d,%d\00", align 1

; Function Attrs: nofree nounwind sspstrong uwtable
define dso_local i32 @main() local_unnamed_addr #0 {
  %1 = alloca i32, align 4
  %2 = alloca [300 x i32], align 16
  %3 = bitcast i32* %1 to i8*
  call void @llvm.lifetime.start.p0i8(i64 4, i8* nonnull %3) #3
  %4 = bitcast [300 x i32]* %2 to i8*
  call void @llvm.lifetime.start.p0i8(i64 1200, i8* nonnull %4) #3
  %5 = call i32 (i8*, ...) @__isoc99_scanf(i8* getelementptr inbounds ([3 x i8], [3 x i8]* @.str, i64 0, i64 0), i32* nonnull %1)
  %6 = load i32, i32* %1, align 4, !tbaa !5
  %7 = icmp sgt i32 %6, 0
  br i1 %7, label %11, label %8

8:                                                ; preds = %0
  %9 = sitofp i32 %6 to double
  %10 = fdiv double 0.000000e+00, %9
  br label %52

11:                                               ; preds = %0, %11
  %12 = phi i64 [ %18, %11 ], [ 0, %0 ]
  %13 = phi i32 [ %17, %11 ], [ 0, %0 ]
  %14 = getelementptr inbounds [300 x i32], [300 x i32]* %2, i64 0, i64 %12
  %15 = call i32 (i8*, ...) @__isoc99_scanf(i8* getelementptr inbounds ([3 x i8], [3 x i8]* @.str, i64 0, i64 0), i32* nonnull %14)
  %16 = load i32, i32* %14, align 4, !tbaa !5
  %17 = add nsw i32 %16, %13
  %18 = add nuw nsw i64 %12, 1
  %19 = load i32, i32* %1, align 4, !tbaa !5
  %20 = sext i32 %19 to i64
  %21 = icmp slt i64 %18, %20
  br i1 %21, label %11, label %22, !llvm.loop !9

22:                                               ; preds = %11
  %23 = sitofp i32 %17 to double
  %24 = sitofp i32 %19 to double
  %25 = fdiv double %23, %24
  %26 = icmp sgt i32 %19, 0
  br i1 %26, label %27, label %52

27:                                               ; preds = %22
  %28 = icmp eq i32 %19, 1
  br i1 %28, label %52, label %29

29:                                               ; preds = %27
  %30 = zext i32 %19 to i64
  br label %31

31:                                               ; preds = %29, %49
  %32 = phi i32 [ %50, %49 ], [ 0, %29 ]
  br label %33

33:                                               ; preds = %31, %46
  %34 = phi i64 [ %30, %31 ], [ %48, %46 ]
  %35 = phi i32 [ %19, %31 ], [ %36, %46 ]
  %36 = add nsw i32 %35, -1
  %37 = add nsw i32 %35, -2
  %38 = zext i32 %37 to i64
  %39 = getelementptr inbounds [300 x i32], [300 x i32]* %2, i64 0, i64 %38
  %40 = load i32, i32* %39, align 4, !tbaa !5
  %41 = zext i32 %36 to i64
  %42 = getelementptr inbounds [300 x i32], [300 x i32]* %2, i64 0, i64 %41
  %43 = load i32, i32* %42, align 4, !tbaa !5
  %44 = icmp sgt i32 %40, %43
  br i1 %44, label %45, label %46

45:                                               ; preds = %33
  store i32 %43, i32* %39, align 4, !tbaa !5
  store i32 %40, i32* %42, align 4, !tbaa !5
  br label %46

46:                                               ; preds = %45, %33
  %47 = icmp sgt i64 %34, 2
  %48 = add nsw i64 %34, -1
  br i1 %47, label %33, label %49, !llvm.loop !11

49:                                               ; preds = %46
  %50 = add nuw nsw i32 %32, 1
  %51 = icmp eq i32 %50, %19
  br i1 %51, label %52, label %31, !llvm.loop !12

52:                                               ; preds = %49, %27, %8, %22
  %53 = phi double [ %10, %8 ], [ %25, %22 ], [ %25, %27 ], [ %25, %49 ]
  %54 = phi i32 [ %6, %8 ], [ %19, %22 ], [ 1, %27 ], [ %19, %49 ]
  %55 = getelementptr inbounds [300 x i32], [300 x i32]* %2, i64 0, i64 0
  %56 = load i32, i32* %55, align 16, !tbaa !5
  %57 = sitofp i32 %56 to double
  %58 = fsub double %53, %57
  %59 = add nsw i32 %54, -1
  %60 = sext i32 %59 to i64
  %61 = getelementptr inbounds [300 x i32], [300 x i32]* %2, i64 0, i64 %60
  %62 = load i32, i32* %61, align 4, !tbaa !5
  %63 = sitofp i32 %62 to double
  %64 = fsub double %63, %53
  %65 = fcmp ogt double %58, %64
  br i1 %65, label %66, label %68

66:                                               ; preds = %52
  %67 = call i32 (i8*, ...) @printf(i8* nonnull dereferenceable(1) getelementptr inbounds ([3 x i8], [3 x i8]* @.str, i64 0, i64 0), i32 %56)
  br label %78

68:                                               ; preds = %52
  %69 = fcmp olt double %58, %64
  br i1 %69, label %70, label %72

70:                                               ; preds = %68
  %71 = call i32 (i8*, ...) @printf(i8* nonnull dereferenceable(1) getelementptr inbounds ([3 x i8], [3 x i8]* @.str, i64 0, i64 0), i32 %62)
  br label %78

72:                                               ; preds = %68
  %73 = fcmp une double %58, %64
  %74 = icmp eq i32 %56, %62
  %75 = select i1 %73, i1 true, i1 %74
  br i1 %75, label %78, label %76

76:                                               ; preds = %72
  %77 = call i32 (i8*, ...) @printf(i8* nonnull dereferenceable(1) getelementptr inbounds ([6 x i8], [6 x i8]* @.str.1, i64 0, i64 0), i32 %56, i32 %62)
  br label %78

78:                                               ; preds = %70, %76, %72, %66
  call void @llvm.lifetime.end.p0i8(i64 1200, i8* nonnull %4) #3
  call void @llvm.lifetime.end.p0i8(i64 4, i8* nonnull %3) #3
  ret i32 0
}

; Function Attrs: argmemonly mustprogress nofree nosync nounwind willreturn
declare void @llvm.lifetime.start.p0i8(i64 immarg, i8* nocapture) #1

; Function Attrs: nofree nounwind
declare noundef i32 @__isoc99_scanf(i8* nocapture noundef readonly, ...) local_unnamed_addr #2

; Function Attrs: argmemonly mustprogress nofree nosync nounwind willreturn
declare void @llvm.lifetime.end.p0i8(i64 immarg, i8* nocapture) #1

; Function Attrs: nofree nounwind
declare noundef i32 @printf(i8* nocapture noundef readonly, ...) local_unnamed_addr #2


!llvm.module.flags = !{!0, !1, !2, !3}
!llvm.ident = !{!4}

!0 = !{i32 1, !"wchar_size", i32 4}
!1 = !{i32 7, !"PIC Level", i32 2}
!2 = !{i32 7, !"PIE Level", i32 2}
!3 = !{i32 7, !"uwtable", i32 1}
!4 = !{!"clang version 13.0.0"}
!5 = !{!6, !6, i64 0}
!6 = !{!"int", !7, i64 0}
!7 = !{!"omnipotent char", !8, i64 0}
!8 = !{!"Simple C/C++ TBAA"}
!9 = distinct !{!9, !10}
!10 = !{!"llvm.loop.mustprogress"}
!11 = distinct !{!11, !10}
!12 = distinct !{!12, !10}
